target datalayout = "e-m:e-p270:32:32-p271:32:32-p272:64:64-i64:64-i128:128-f80:128-n8:16:32:64-S128"
target triple = "x86_64-pc-linux-gnu"

%"struct.faiss::FlatCodesDistanceComputer" = type { %"struct.faiss::DistanceComputer", ptr, i64 }
%"struct.faiss::DistanceComputer" = type { ptr }
%"struct.faiss::(anonymous namespace)::FlatL2WithNormsDis" = type <{ %"struct.faiss::FlatCodesDistanceComputer", i64, i64, ptr, ptr, i64, ptr, float, [4 x i8] }>

; Function Attrs: inlinehint mustprogress nounwind uwtable
define linkonce_odr void @_Z11prefetch_L2PKv(ptr noundef %0) #0 comdat {
  %2 = alloca ptr, align 8
  store ptr %0, ptr %2, align 8, !tbaa !140
  %3 = load ptr, ptr %2, align 8, !tbaa !140
  call void @llvm.prefetch.p0(ptr %3, i32 0, i32 2, i32 1)
  ret void
}

; Function Attrs: mustprogress uwtable
define internal noundef float @_ZN5faiss12_GLOBAL__N_118FlatL2WithNormsDis13symmetric_disEll(ptr noundef nonnull align 8 dereferenceable(76) %0, i64 noundef %1, i64 noundef %2) unnamed_addr #2 align 2 {
  %4 = alloca ptr, align 8
  %5 = alloca i64, align 8
  %6 = alloca i64, align 8
  %7 = alloca ptr, align 8
  %8 = alloca ptr, align 8
  %9 = alloca float, align 4
  store ptr %0, ptr %4, align 8, !tbaa !152
  store i64 %1, ptr %5, align 8, !tbaa !13
  store i64 %2, ptr %6, align 8, !tbaa !13
  %10 = load ptr, ptr %4, align 8
  call void @llvm.lifetime.start.p0(i64 8, ptr %7) #18
  %11 = getelementptr inbounds nuw %"struct.faiss::FlatCodesDistanceComputer", ptr %10, i32 0, i32 1
  %12 = load ptr, ptr %11, align 8, !tbaa !120
  %13 = load i64, ptr %5, align 8, !tbaa !13
  %14 = getelementptr inbounds nuw %"struct.faiss::FlatCodesDistanceComputer", ptr %10, i32 0, i32 2
  %15 = load i64, ptr %14, align 8, !tbaa !121
  %16 = mul i64 %13, %15
  %17 = getelementptr inbounds nuw i8, ptr %12, i64 %16
  store ptr %17, ptr %7, align 8, !tbaa !15
  call void @llvm.lifetime.start.p0(i64 8, ptr %8) #18
  %18 = getelementptr inbounds nuw %"struct.faiss::FlatCodesDistanceComputer", ptr %10, i32 0, i32 1
  %19 = load ptr, ptr %18, align 8, !tbaa !120
  %20 = load i64, ptr %6, align 8, !tbaa !13
  %21 = getelementptr inbounds nuw %"struct.faiss::FlatCodesDistanceComputer", ptr %10, i32 0, i32 2
  %22 = load i64, ptr %21, align 8, !tbaa !121
  %23 = mul i64 %20, %22
  %24 = getelementptr inbounds nuw i8, ptr %19, i64 %23
  store ptr %24, ptr %8, align 8, !tbaa !15
  %25 = getelementptr inbounds nuw %"struct.faiss::(anonymous namespace)::FlatL2WithNormsDis", ptr %10, i32 0, i32 6
  %26 = load ptr, ptr %25, align 8, !tbaa !160
  %27 = load i64, ptr %5, align 8, !tbaa !13
  %28 = getelementptr inbounds float, ptr %26, i64 %27
  call void @_Z11prefetch_L2PKv(ptr noundef %28)
  %29 = getelementptr inbounds nuw %"struct.faiss::(anonymous namespace)::FlatL2WithNormsDis", ptr %10, i32 0, i32 6
  %30 = load ptr, ptr %29, align 8, !tbaa !160
  %31 = load i64, ptr %6, align 8, !tbaa !13
  %32 = getelementptr inbounds float, ptr %30, i64 %31
  call void @_Z11prefetch_L2PKv(ptr noundef %32)
  call void @llvm.lifetime.start.p0(i64 4, ptr %9) #18
  %33 = load ptr, ptr %7, align 8, !tbaa !15
  %34 = load ptr, ptr %8, align 8, !tbaa !15
  %35 = getelementptr inbounds nuw %"struct.faiss::(anonymous namespace)::FlatL2WithNormsDis", ptr %10, i32 0, i32 1
  %36 = load i64, ptr %35, align 8, !tbaa !154
  %37 = call noundef float @_ZN5faiss18fvec_inner_productEPKfS1_m(ptr noundef %33, ptr noundef %34, i64 noundef %36)
  store float %37, ptr %9, align 4, !tbaa !45
  %38 = getelementptr inbounds nuw %"struct.faiss::(anonymous namespace)::FlatL2WithNormsDis", ptr %10, i32 0, i32 6
  %39 = load ptr, ptr %38, align 8, !tbaa !160
  %40 = load i64, ptr %5, align 8, !tbaa !13
  %41 = getelementptr inbounds float, ptr %39, i64 %40
  %42 = load float, ptr %41, align 4, !tbaa !45
  %43 = getelementptr inbounds nuw %"struct.faiss::(anonymous namespace)::FlatL2WithNormsDis", ptr %10, i32 0, i32 6
  %44 = load ptr, ptr %43, align 8, !tbaa !160
  %45 = load i64, ptr %6, align 8, !tbaa !13
  %46 = getelementptr inbounds float, ptr %44, i64 %45
  %47 = load float, ptr %46, align 4, !tbaa !45
  %48 = fadd float %42, %47
  %49 = load float, ptr %9, align 4, !tbaa !45
  %50 = call float @llvm.fmuladd.f32(float -2.000000e+00, float %49, float %48)
  call void @llvm.lifetime.end.p0(i64 4, ptr %9) #18
  call void @llvm.lifetime.end.p0(i64 8, ptr %8) #18
  call void @llvm.lifetime.end.p0(i64 8, ptr %7) #18
  ret float %50
}