; Function Attrs: mustprogress uwtable
define internal noundef float @_ZN5faiss12_GLOBAL__N_118FlatL2WithNormsDis13symmetric_disEll(ptr noundef nonnull readonly align 8 captures(none) dereferenceable(76) %0, i64 noundef %1, i64 noundef %2) unnamed_addr #2 align 2 {
  %4 = getelementptr inbounds nuw i8, ptr %0, i64 8
  %5 = load ptr, ptr %4, align 8, !tbaa !49
  %6 = getelementptr inbounds nuw i8, ptr %0, i64 16
  %7 = load i64, ptr %6, align 8, !tbaa !52
  %8 = mul i64 %7, %1
  %9 = getelementptr inbounds nuw i8, ptr %5, i64 %8
  %10 = mul i64 %7, %2
  %11 = getelementptr inbounds nuw i8, ptr %5, i64 %10
  %12 = getelementptr inbounds nuw i8, ptr %0, i64 64
  %13 = load ptr, ptr %12, align 8, !tbaa !75
  %14 = getelementptr inbounds float, ptr %13, i64 %1
  tail call void @llvm.prefetch.p0(ptr %14, i32 0, i32 2, i32 1)
  %15 = getelementptr inbounds float, ptr %13, i64 %2
  tail call void @llvm.prefetch.p0(ptr %15, i32 0, i32 2, i32 1)
  %16 = getelementptr inbounds nuw i8, ptr %0, i64 24
  %17 = load i64, ptr %16, align 8, !tbaa !69
  %18 = tail call noundef float @_ZN5faiss18fvec_inner_productEPKfS1_m(ptr noundef %9, ptr noundef %11, i64 noundef %17)
  %19 = load ptr, ptr %12, align 8, !tbaa !75
  %20 = getelementptr inbounds float, ptr %19, i64 %1
  %21 = load float, ptr %20, align 4, !tbaa !96
  %22 = getelementptr inbounds float, ptr %19, i64 %2
  %23 = load float, ptr %22, align 4, !tbaa !96
  %24 = fadd float %21, %23
  %25 = tail call float @llvm.fmuladd.f32(float %18, float -2.000000e+00, float %24)
  ret float %25
}